Certificate:
    Data:
        Version: 3 (0x2)
        Serial Number: 1 (0x1)
        Signature Algorithm: sha1WithRSAEncryption
        Issuer: CN=SuperHappyDevHouse, C=US, ST=California, L=Bay Area, O=shdh.org/emailAddress=welcome@shdh.org
        Validity
            Not Before: Jan 26 02:46:23 2009 GMT
            Not After : Jan 26 02:46:23 2010 GMT
        Subject: C=US, ST=California, O=SuperHappyDevHouse, CN=welcome.local/emailAddress=welcome@shdh.org
        Subject Public Key Info:
            Public Key Algorithm: rsaEncryption
            RSA Public Key: (1024 bit)
                Modulus (1024 bit):
                    00:af:a1:6f:96:75:80:95:88:19:e1:45:90:e4:a4:
                    78:c9:67:ce:ec:82:bf:c4:d7:a9:84:73:ed:d9:33:
                    5e:41:b0:75:f4:c3:7b:57:58:1c:e5:26:a7:4c:5f:
                    da:65:ca:57:11:76:79:5c:bf:c3:82:37:14:ab:3e:
                    72:21:32:d7:b8:f4:f3:ea:fc:d6:a8:0e:2c:b7:39:
                    da:42:80:fa:eb:75:ad:5f:ce:d3:9a:ba:44:e3:a7:
                    5d:67:9f:ec:93:57:1d:dd:22:a0:5a:88:50:f0:e5:
                    31:56:ca:fc:9a:c2:5a:3b:c8:de:b8:56:7a:44:f8:
                    64:54:ec:ba:6d:38:3f:22:8f
                Exponent: 65537 (0x10001)
        X509v3 extensions:
            X509v3 Basic Constraints: 
                CA:FALSE
            X509v3 Subject Key Identifier: 
                6A:1D:17:00:87:7D:23:C3:6E:78:18:6E:70:A9:45:6A:ED:5B:8D:A3
            X509v3 Authority Key Identifier: 
                keyid:FB:3B:BB:6C:58:8F:1D:6D:A0:4C:39:8A:08:1C:56:CF:6E:0B:19:11
                DirName:/CN=SuperHappyDevHouse/C=US/ST=California/L=Bay Area/O=shdh.org/emailAddress=welcome@shdh.org
                serial:F9:43:36:42:D7:77:87:C6

            Netscape CA Revocation Url: 
                https://shdh.org/crl.pem
    Signature Algorithm: sha1WithRSAEncryption
        11:62:44:e8:8f:68:c2:95:1a:22:f2:03:bd:0e:af:2d:6c:20:
        da:3a:a8:a6:b9:a9:32:70:b1:51:41:92:7a:c4:30:1a:35:d7:
        7e:84:bd:a6:7d:71:13:c2:29:4b:d8:1f:c0:9f:07:f5:a4:7a:
        a7:b2:57:15:2d:28:51:90:58:6b:75:73:41:9f:d0:51:15:53:
        88:c7:84:30:23:b5:80:f1:f6:61:c1:d0:ba:7d:45:ba:be:8b:
        e5:dd:db:65:c7:2a:d1:77:d5:ec:da:03:35:e9:c9:81:55:19:
        96:f4:d6:c6:2f:60:b9:3d:a6:55:22:f5:a2:85:69:a6:2a:69:
        6b:72:f4:72:36:29:f6:a6:1f:30:e8:68:db:13:ba:14:9a:b6:
        f4:f6:83:5a:e9:d7:b6:6f:52:e1:23:83:d4:4f:76:73:92:62:
        9e:e2:7a:f0:1e:37:fa:f2:70:3e:e5:dc:f8:20:bd:c9:b9:c9:
        66:ea:49:2f:55:8e:3d:6d:13:5c:32:63:85:4d:c5:10:a9:37:
        52:fc:6a:fe:5a:43:9c:03:1b:9b:63:63:ef:44:5c:14:ee:88:
        e5:a4:41:a7:0f:b3:7d:da:74:7b:65:13:c3:b8:33:ed:13:e0:
        56:7d:4b:bf:d0:10:fa:f4:52:ea:ad:c0:f5:28:83:57:2d:36:
        2f:70:85:b5
-----BEGIN CERTIFICATE-----
MIIEDTCCAvWgAwIBAgIBATANBgkqhkiG9w0BAQUFADCBhjEbMBkGA1UEAxMSU3Vw
ZXJIYXBweURldkhvdXNlMQswCQYDVQQGEwJVUzETMBEGA1UECBMKQ2FsaWZvcm5p
YTERMA8GA1UEBxMIQmF5IEFyZWExETAPBgNVBAoTCHNoZGgub3JnMR8wHQYJKoZI
hvcNAQkBFhB3ZWxjb21lQHNoZGgub3JnMB4XDTA5MDEyNjAyNDYyM1oXDTEwMDEy
NjAyNDYyM1oweDELMAkGA1UEBhMCVVMxEzARBgNVBAgTCkNhbGlmb3JuaWExGzAZ
BgNVBAoTElN1cGVySGFwcHlEZXZIb3VzZTEWMBQGA1UEAxMNd2VsY29tZS5sb2Nh
bDEfMB0GCSqGSIb3DQEJARYQd2VsY29tZUBzaGRoLm9yZzCBnzANBgkqhkiG9w0B
AQEFAAOBjQAwgYkCgYEAr6FvlnWAlYgZ4UWQ5KR4yWfO7IK/xNephHPt2TNeQbB1
9MN7V1gc5SanTF/aZcpXEXZ5XL/DgjcUqz5yITLXuPTz6vzWqA4stznaQoD663Wt
X87TmrpE46ddZ5/sk1cd3SKgWohQ8OUxVsr8msJaO8jeuFZ6RPhkVOy6bTg/Io8C
AwEAAaOCARUwggERMAkGA1UdEwQCMAAwHQYDVR0OBBYEFGodFwCHfSPDbngYbnCp
RWrtW42jMIG7BgNVHSMEgbMwgbCAFPs7u2xYjx1toEw5iggcVs9uCxkRoYGMpIGJ
MIGGMRswGQYDVQQDExJTdXBlckhhcHB5RGV2SG91c2UxCzAJBgNVBAYTAlVTMRMw
EQYDVQQIEwpDYWxpZm9ybmlhMREwDwYDVQQHEwhCYXkgQXJlYTERMA8GA1UEChMI
c2hkaC5vcmcxHzAdBgkqhkiG9w0BCQEWEHdlbGNvbWVAc2hkaC5vcmeCCQD5QzZC
13eHxjAnBglghkgBhvhCAQQEGhYYaHR0cHM6Ly9zaGRoLm9yZy9jcmwucGVtMA0G
CSqGSIb3DQEBBQUAA4IBAQARYkToj2jClRoi8gO9Dq8tbCDaOqimuakycLFRQZJ6
xDAaNdd+hL2mfXETwilL2B/Anwf1pHqnslcVLShRkFhrdXNBn9BRFVOIx4QwI7WA
8fZhwdC6fUW6vovl3dtlxyrRd9Xs2gM16cmBVRmW9NbGL2C5PaZVIvWihWmmKmlr
cvRyNin2ph8w6GjbE7oUmrb09oNa6de2b1LhI4PUT3ZzkmKe4nrwHjf68nA+5dz4
IL3Juclm6kkvVY49bRNcMmOFTcUQqTdS/Gr+WkOcAxubY2PvRFwU7ojlpEGnD7N9
2nR7ZRPDuDPtE+BWfUu/0BD69FLqrcD1KINXLTYvcIW1
-----END CERTIFICATE-----
