Certificate:
    Data:
        Version: 3 (0x2)
        Serial Number: 2 (0x2)
        Signature Algorithm: sha1WithRSAEncryption
        Issuer: CN=SHDH, C=US, ST=California, L=Bay Area, O=shdh.org/emailAddress=welcome@shdh.org
        Validity
            Not Before: Dec  8 01:14:09 2008 GMT
            Not After : Dec  8 01:14:09 2009 GMT
        Subject: C=US, ST=California, O=Internet Widgits Pty Ltd, CN=powernut.local
        Subject Public Key Info:
            Public Key Algorithm: rsaEncryption
            RSA Public Key: (1024 bit)
                Modulus (1024 bit):
                    00:9c:12:b7:d4:dc:c6:c8:f2:1f:3d:23:99:1f:51:
                    2e:ce:7b:84:49:0f:2b:8f:52:77:ac:6b:ac:9f:a5:
                    8b:fa:a1:94:d6:df:5f:fd:22:6b:b7:f8:01:db:2a:
                    b5:c8:8e:01:95:6e:13:15:8b:80:84:d4:99:db:a3:
                    f9:f2:10:67:d6:ea:1d:10:12:11:92:62:53:05:53:
                    30:a7:66:f2:04:8f:aa:6b:28:f0:dd:65:69:92:28:
                    d9:cc:50:7a:70:82:1f:5a:b0:a4:6c:28:ee:30:fc:
                    f5:a9:b3:94:33:a2:7a:27:22:47:06:c1:a1:b4:3b:
                    c1:39:58:4c:46:11:a4:3b:77
                Exponent: 65537 (0x10001)
        X509v3 extensions:
            X509v3 Basic Constraints: 
                CA:FALSE
            X509v3 Subject Key Identifier: 
                48:03:D8:7B:32:EF:6A:1F:E9:83:C1:C7:1C:32:41:8E:25:21:B3:CD
            X509v3 Authority Key Identifier: 
                keyid:FF:BD:C8:AD:E3:20:3D:9D:53:10:E6:94:2A:90:EE:0B:5C:78:FF:2E
                DirName:/CN=SHDH/C=US/ST=California/L=Bay Area/O=shdh.org/emailAddress=welcome@shdh.org
                serial:A4:BA:5A:D7:1A:C5:5A:D2

            Netscape CA Revocation Url: 
                https://shdh.org/ca-crl.pem
    Signature Algorithm: sha1WithRSAEncryption
        16:31:15:b4:84:b7:cd:e3:91:ab:e1:c0:35:8b:ef:85:20:51:
        5a:dc:39:f2:18:12:4d:47:17:bf:74:be:6e:4c:af:23:9b:1a:
        c8:41:8c:d4:0d:72:6c:d3:28:25:42:72:2e:96:95:71:b2:19:
        c4:3b:bb:d2:0e:63:7a:2f:29:39:34:01:6b:17:24:1b:78:c1:
        6a:1d:9d:ce:8c:b7:81:22:31:08:b8:3d:59:a1:38:b0:b0:5c:
        d1:26:52:22:17:58:83:02:dd:52:41:f1:f5:bd:0f:87:c7:ed:
        57:08:df:2f:84:34:2d:46:99:d5:75:d3:3c:82:60:36:a5:99:
        05:01:b8:8d:4e:33:15:8d:27:89:31:28:a6:36:21:81:71:9f:
        ef:92:6e:ff:66:46:ac:8e:71:07:fe:20:b1:b1:f4:21:38:55:
        57:7f:15:a4:a1:4f:56:76:d7:64:08:85:5c:95:d8:a1:80:bf:
        f0:d9:b4:49:fa:ff:9f:e1:10:69:08:e0:fa:4f:9e:d8:cd:71:
        d9:a2:60:34:15:a1:79:7a:2a:27:ec:9d:14:9e:f6:58:62:23:
        b1:25:11:de:9d:fb:3e:49:90:45:54:ec:39:0a:8b:35:4f:61:
        87:0f:b1:d8:34:3a:e6:49:37:84:dd:a4:0a:33:7a:2f:56:1e:
        20:de:7e:4b
-----BEGIN CERTIFICATE-----
MIID1jCCAr6gAwIBAgIBAjANBgkqhkiG9w0BAQUFADB4MQ0wCwYDVQQDEwRTSERI
MQswCQYDVQQGEwJVUzETMBEGA1UECBMKQ2FsaWZvcm5pYTERMA8GA1UEBxMIQmF5
IEFyZWExETAPBgNVBAoTCHNoZGgub3JnMR8wHQYJKoZIhvcNAQkBFhB3ZWxjb21l
QHNoZGgub3JnMB4XDTA4MTIwODAxMTQwOVoXDTA5MTIwODAxMTQwOVowXjELMAkG
A1UEBhMCVVMxEzARBgNVBAgTCkNhbGlmb3JuaWExITAfBgNVBAoTGEludGVybmV0
IFdpZGdpdHMgUHR5IEx0ZDEXMBUGA1UEAxMOcG93ZXJudXQubG9jYWwwgZ8wDQYJ
KoZIhvcNAQEBBQADgY0AMIGJAoGBAJwSt9TcxsjyHz0jmR9RLs57hEkPK49Sd6xr
rJ+li/qhlNbfX/0ia7f4AdsqtciOAZVuExWLgITUmduj+fIQZ9bqHRASEZJiUwVT
MKdm8gSPqmso8N1laZIo2cxQenCCH1qwpGwo7jD89amzlDOieiciRwbBobQ7wTlY
TEYRpDt3AgMBAAGjggEHMIIBAzAJBgNVHRMEAjAAMB0GA1UdDgQWBBRIA9h7Mu9q
H+mDwcccMkGOJSGzzTCBqgYDVR0jBIGiMIGfgBT/vcit4yA9nVMQ5pQqkO4LXHj/
LqF8pHoweDENMAsGA1UEAxMEU0hESDELMAkGA1UEBhMCVVMxEzARBgNVBAgTCkNh
bGlmb3JuaWExETAPBgNVBAcTCEJheSBBcmVhMREwDwYDVQQKEwhzaGRoLm9yZzEf
MB0GCSqGSIb3DQEJARYQd2VsY29tZUBzaGRoLm9yZ4IJAKS6WtcaxVrSMCoGCWCG
SAGG+EIBBAQdFhtodHRwczovL3NoZGgub3JnL2NhLWNybC5wZW0wDQYJKoZIhvcN
AQEFBQADggEBABYxFbSEt83jkavhwDWL74UgUVrcOfIYEk1HF790vm5MryObGshB
jNQNcmzTKCVCci6WlXGyGcQ7u9IOY3ovKTk0AWsXJBt4wWodnc6Mt4EiMQi4PVmh
OLCwXNEmUiIXWIMC3VJB8fW9D4fH7VcI3y+ENC1GmdV10zyCYDalmQUBuI1OMxWN
J4kxKKY2IYFxn++Sbv9mRqyOcQf+ILGx9CE4VVd/FaShT1Z212QIhVyV2KGAv/DZ
tEn6/5/hEGkI4PpPntjNcdmiYDQVoXl6KifsnRSe9lhiI7ElEd6d+z5JkEVU7DkK
izVPYYcPsdg0OuZJN4TdpAozei9WHiDefks=
-----END CERTIFICATE-----
