Certificate:
    Data:
        Version: 3 (0x2)
        Serial Number: 3 (0x3)
        Signature Algorithm: sha1WithRSAEncryption
        Issuer: CN=SHDH, C=US, ST=California, L=Bay Area, O=shdh.org/emailAddress=welcome@shdh.org
        Validity
            Not Before: Dec  8 01:30:25 2008 GMT
            Not After : Dec  8 01:30:25 2009 GMT
        Subject: C=US, ST=California, O=Internet Widgits Pty Ltd, CN=Adam Smith
        Subject Public Key Info:
            Public Key Algorithm: rsaEncryption
            RSA Public Key: (1024 bit)
                Modulus (1024 bit):
                    00:f5:09:2c:ec:44:a7:58:60:6b:b9:03:3c:f6:bc:
                    80:b6:8b:9a:cf:d0:f3:bd:00:b2:5b:47:49:81:7d:
                    1c:cb:fd:44:0b:a4:52:fa:28:40:f8:82:57:a2:f7:
                    26:fa:8c:6c:be:97:0f:c5:3a:85:e9:1f:18:95:60:
                    49:17:7d:48:e1:75:48:d1:82:8f:af:9a:4c:cb:41:
                    70:90:51:c0:cb:19:bb:96:41:2f:1b:10:0e:8b:77:
                    3a:87:01:2a:5d:d5:aa:c3:8a:34:7a:24:fa:8d:5d:
                    a0:df:1f:da:d0:31:a4:7d:2b:fe:03:97:87:25:46:
                    ed:82:c9:17:0b:f0:fa:09:35
                Exponent: 65537 (0x10001)
        X509v3 extensions:
            X509v3 Basic Constraints: 
                CA:FALSE
            X509v3 Subject Key Identifier: 
                1A:65:7F:41:D0:C6:FA:0C:7F:BF:27:2A:4C:81:AE:8E:0A:18:D0:43
            X509v3 Authority Key Identifier: 
                keyid:FF:BD:C8:AD:E3:20:3D:9D:53:10:E6:94:2A:90:EE:0B:5C:78:FF:2E
                DirName:/CN=SHDH/C=US/ST=California/L=Bay Area/O=shdh.org/emailAddress=welcome@shdh.org
                serial:A4:BA:5A:D7:1A:C5:5A:D2

            Netscape CA Revocation Url: 
                https://shdh.org/ca-crl.pem
    Signature Algorithm: sha1WithRSAEncryption
        79:39:a8:d1:ac:06:03:02:5c:7f:cb:29:74:25:93:d2:1e:06:
        d5:f2:8b:60:0b:b0:c2:17:7b:da:b4:35:eb:8f:e1:a0:4a:cc:
        9f:5c:8d:be:3e:c1:d5:ab:8d:13:65:ad:16:e8:32:9f:ab:9b:
        5f:d5:e6:2d:27:99:ce:bf:96:e9:ba:d0:26:87:4d:c9:75:67:
        70:41:72:ec:17:66:48:a4:ec:d9:4e:89:de:e3:59:41:12:95:
        df:34:b7:50:12:88:ad:78:e7:24:a2:af:49:60:72:ee:45:42:
        82:cc:91:b4:ed:36:39:c7:07:3a:30:28:af:6d:fd:36:95:1a:
        f1:15:12:38:96:1f:ac:45:52:ba:d3:ea:ab:19:c9:2f:49:e1:
        e9:00:7c:91:8e:a9:b1:2e:f4:21:cb:2f:9c:c5:fc:53:3b:a0:
        62:b3:9e:5a:35:9a:74:53:2b:0a:66:e7:1e:83:8d:5f:ce:e2:
        87:62:e9:29:38:d6:44:a7:af:b0:99:80:2a:44:6d:74:46:d7:
        0d:10:15:6a:74:cb:a3:44:63:2f:4e:db:b3:8e:b6:6c:90:d7:
        e8:7c:07:e2:75:fc:a9:27:5d:b2:82:be:4c:fd:fd:2b:42:17:
        68:67:03:31:32:56:57:6f:03:61:13:d0:84:6f:24:eb:a5:01:
        ac:44:4a:60
-----BEGIN CERTIFICATE-----
MIID0jCCArqgAwIBAgIBAzANBgkqhkiG9w0BAQUFADB4MQ0wCwYDVQQDEwRTSERI
MQswCQYDVQQGEwJVUzETMBEGA1UECBMKQ2FsaWZvcm5pYTERMA8GA1UEBxMIQmF5
IEFyZWExETAPBgNVBAoTCHNoZGgub3JnMR8wHQYJKoZIhvcNAQkBFhB3ZWxjb21l
QHNoZGgub3JnMB4XDTA4MTIwODAxMzAyNVoXDTA5MTIwODAxMzAyNVowWjELMAkG
A1UEBhMCVVMxEzARBgNVBAgTCkNhbGlmb3JuaWExITAfBgNVBAoTGEludGVybmV0
IFdpZGdpdHMgUHR5IEx0ZDETMBEGA1UEAxMKQWRhbSBTbWl0aDCBnzANBgkqhkiG
9w0BAQEFAAOBjQAwgYkCgYEA9Qks7ESnWGBruQM89ryAtouaz9DzvQCyW0dJgX0c
y/1EC6RS+ihA+IJXovcm+oxsvpcPxTqF6R8YlWBJF31I4XVI0YKPr5pMy0FwkFHA
yxm7lkEvGxAOi3c6hwEqXdWqw4o0eiT6jV2g3x/a0DGkfSv+A5eHJUbtgskXC/D6
CTUCAwEAAaOCAQcwggEDMAkGA1UdEwQCMAAwHQYDVR0OBBYEFBplf0HQxvoMf78n
KkyBro4KGNBDMIGqBgNVHSMEgaIwgZ+AFP+9yK3jID2dUxDmlCqQ7gtceP8uoXyk
ejB4MQ0wCwYDVQQDEwRTSERIMQswCQYDVQQGEwJVUzETMBEGA1UECBMKQ2FsaWZv
cm5pYTERMA8GA1UEBxMIQmF5IEFyZWExETAPBgNVBAoTCHNoZGgub3JnMR8wHQYJ
KoZIhvcNAQkBFhB3ZWxjb21lQHNoZGgub3JnggkApLpa1xrFWtIwKgYJYIZIAYb4
QgEEBB0WG2h0dHBzOi8vc2hkaC5vcmcvY2EtY3JsLnBlbTANBgkqhkiG9w0BAQUF
AAOCAQEAeTmo0awGAwJcf8spdCWT0h4G1fKLYAuwwhd72rQ164/hoErMn1yNvj7B
1auNE2WtFugyn6ubX9XmLSeZzr+W6brQJodNyXVncEFy7BdmSKTs2U6J3uNZQRKV
3zS3UBKIrXjnJKKvSWBy7kVCgsyRtO02OccHOjAor239NpUa8RUSOJYfrEVSutPq
qxnJL0nh6QB8kY6psS70IcsvnMX8UzugYrOeWjWadFMrCmbnHoONX87ih2LpKTjW
RKevsJmAKkRtdEbXDRAVanTLo0RjL07bs462bJDX6HwH4nX8qSddsoK+TP39K0IX
aGcDMTJWV28DYRPQhG8k66UBrERKYA==
-----END CERTIFICATE-----
