Certificate:
    Data:
        Version: 3 (0x2)
        Serial Number: 4 (0x4)
        Signature Algorithm: sha1WithRSAEncryption
        Issuer: CN=SHDH, C=US, ST=California, L=Bay Area, O=shdh.org/emailAddress=welcome@shdh.org
        Validity
            Not Before: Dec  8 01:33:40 2008 GMT
            Not After : Dec  8 01:33:40 2009 GMT
        Subject: C=US, ST=California, O=Internet Widgits Pty Ltd, CN=Adam Smith
        Subject Public Key Info:
            Public Key Algorithm: rsaEncryption
            RSA Public Key: (1024 bit)
                Modulus (1024 bit):
                    00:be:9c:9e:5f:76:fd:c6:c0:64:57:f4:04:ee:8e:
                    56:a7:bf:ed:92:dd:74:a1:d5:5f:68:33:bd:de:25:
                    a5:40:4c:1e:bb:01:5e:0d:6f:1a:60:fc:11:cf:ef:
                    a2:9c:f2:75:7b:f3:bb:6d:ec:ef:9f:14:19:dc:40:
                    f1:aa:e6:8f:92:b7:6d:cb:32:9b:83:a0:de:20:1b:
                    85:54:8b:30:f8:5f:39:93:1f:9f:43:2f:57:78:ca:
                    5c:1e:3d:36:d8:1e:0b:29:9b:a4:44:36:03:91:45:
                    32:93:b7:d2:44:dd:0f:b9:8a:06:35:59:82:1f:59:
                    36:07:59:60:f3:13:2e:d0:69
                Exponent: 65537 (0x10001)
        X509v3 extensions:
            X509v3 Basic Constraints: 
                CA:FALSE
            X509v3 Subject Key Identifier: 
                AF:AB:1F:C9:C3:9D:C8:E1:BD:CC:29:44:5D:13:19:E1:6E:B0:AB:06
            X509v3 Authority Key Identifier: 
                keyid:FF:BD:C8:AD:E3:20:3D:9D:53:10:E6:94:2A:90:EE:0B:5C:78:FF:2E
                DirName:/CN=SHDH/C=US/ST=California/L=Bay Area/O=shdh.org/emailAddress=welcome@shdh.org
                serial:A4:BA:5A:D7:1A:C5:5A:D2

            Netscape CA Revocation Url: 
                https://shdh.org/ca-crl.pem
    Signature Algorithm: sha1WithRSAEncryption
        c2:56:75:53:46:59:84:03:0a:74:f2:6d:a2:e9:1b:94:06:4f:
        8d:70:47:68:8a:12:73:df:c8:04:bf:cb:e4:7d:fa:b9:f1:96:
        11:f5:43:be:20:60:ce:0b:df:3e:7a:7e:b3:82:0e:ee:2f:2b:
        4a:c6:14:f2:41:d8:8b:9f:59:22:e3:c8:97:c8:bb:d6:2e:f1:
        bd:e4:80:45:78:55:f0:91:99:58:15:1e:f4:0c:5a:a4:71:cf:
        76:0a:8e:97:ef:18:59:ed:05:b5:07:24:17:51:4b:f3:25:f1:
        44:0d:ef:83:74:b5:a7:e6:b6:45:4d:81:3a:6b:2c:d0:1e:0e:
        02:4f:b1:28:95:00:88:43:40:e3:38:6f:bb:c2:85:73:18:f6:
        1a:ca:7c:a5:28:a0:b7:cc:96:22:38:3c:09:c1:41:7d:20:e1:
        c2:42:6f:4b:85:e3:a7:fa:fa:31:e4:bd:33:77:6e:59:38:fd:
        6d:81:13:08:ce:15:9e:06:a4:04:fc:a3:a4:1d:05:ae:d9:8a:
        2d:d5:15:7a:02:35:9f:7b:74:37:71:9c:ff:c0:61:54:2e:25:
        97:91:2b:62:4f:d5:33:30:df:fb:cd:f3:d8:44:da:53:76:9f:
        fb:d8:d4:75:e4:4d:04:cb:43:74:23:dc:ac:50:d2:a4:90:38:
        fa:b5:c2:b5
-----BEGIN CERTIFICATE-----
MIID0jCCArqgAwIBAgIBBDANBgkqhkiG9w0BAQUFADB4MQ0wCwYDVQQDEwRTSERI
MQswCQYDVQQGEwJVUzETMBEGA1UECBMKQ2FsaWZvcm5pYTERMA8GA1UEBxMIQmF5
IEFyZWExETAPBgNVBAoTCHNoZGgub3JnMR8wHQYJKoZIhvcNAQkBFhB3ZWxjb21l
QHNoZGgub3JnMB4XDTA4MTIwODAxMzM0MFoXDTA5MTIwODAxMzM0MFowWjELMAkG
A1UEBhMCVVMxEzARBgNVBAgTCkNhbGlmb3JuaWExITAfBgNVBAoTGEludGVybmV0
IFdpZGdpdHMgUHR5IEx0ZDETMBEGA1UEAxMKQWRhbSBTbWl0aDCBnzANBgkqhkiG
9w0BAQEFAAOBjQAwgYkCgYEAvpyeX3b9xsBkV/QE7o5Wp7/tkt10odVfaDO93iWl
QEweuwFeDW8aYPwRz++inPJ1e/O7bezvnxQZ3EDxquaPkrdtyzKbg6DeIBuFVIsw
+F85kx+fQy9XeMpcHj022B4LKZukRDYDkUUyk7fSRN0PuYoGNVmCH1k2B1lg8xMu
0GkCAwEAAaOCAQcwggEDMAkGA1UdEwQCMAAwHQYDVR0OBBYEFK+rH8nDncjhvcwp
RF0TGeFusKsGMIGqBgNVHSMEgaIwgZ+AFP+9yK3jID2dUxDmlCqQ7gtceP8uoXyk
ejB4MQ0wCwYDVQQDEwRTSERIMQswCQYDVQQGEwJVUzETMBEGA1UECBMKQ2FsaWZv
cm5pYTERMA8GA1UEBxMIQmF5IEFyZWExETAPBgNVBAoTCHNoZGgub3JnMR8wHQYJ
KoZIhvcNAQkBFhB3ZWxjb21lQHNoZGgub3JnggkApLpa1xrFWtIwKgYJYIZIAYb4
QgEEBB0WG2h0dHBzOi8vc2hkaC5vcmcvY2EtY3JsLnBlbTANBgkqhkiG9w0BAQUF
AAOCAQEAwlZ1U0ZZhAMKdPJtoukblAZPjXBHaIoSc9/IBL/L5H36ufGWEfVDviBg
zgvfPnp+s4IO7i8rSsYU8kHYi59ZIuPIl8i71i7xveSARXhV8JGZWBUe9AxapHHP
dgqOl+8YWe0FtQckF1FL8yXxRA3vg3S1p+a2RU2BOmss0B4OAk+xKJUAiENA4zhv
u8KFcxj2Gsp8pSigt8yWIjg8CcFBfSDhwkJvS4Xjp/r6MeS9M3duWTj9bYETCM4V
ngakBPyjpB0FrtmKLdUVegI1n3t0N3Gc/8BhVC4ll5ErYk/VMzDf+83z2ETaU3af
+9jUdeRNBMtDdCPcrFDSpJA4+rXCtQ==
-----END CERTIFICATE-----
