Certificate:
    Data:
        Version: 3 (0x2)
        Serial Number: 0 (0x0)
        Signature Algorithm: sha1WithRSAEncryption
        Issuer: C=US, ST=California, O=SuperHappyDevHouse, OU=Welcome, CN=Welcome System
        Validity
            Not Before: Dec  7 09:09:21 2008 GMT
            Not After : Mar 21 14:03:45 2020 GMT
        Subject: C=US, ST=California, O=SuperHappyDevHouse, OU=Welcome, CN=Welcome System
        Subject Public Key Info:
            Public Key Algorithm: rsaEncryption
            RSA Public Key: (1024 bit)
                Modulus (1024 bit):
                    00:ce:5a:7f:ca:8e:cd:b0:cd:8e:98:a4:c2:12:d2:
                    28:96:99:c5:4c:b3:fc:59:77:fb:5d:8b:34:f2:8c:
                    66:5a:d8:f8:bb:0f:37:12:f1:96:01:99:c7:d7:ae:
                    dc:41:df:14:d5:6d:74:63:f6:3a:be:d3:9e:6d:62:
                    96:0a:0c:9f:04:3e:97:c5:15:38:86:35:fd:28:2b:
                    eb:7b:ec:05:27:20:6e:40:31:c6:5e:a4:68:a4:d3:
                    7a:ff:51:d6:d9:6b:d4:48:e0:bd:a3:ff:f8:aa:93:
                    eb:55:fc:9f:85:eb:3d:1c:d0:70:4f:51:73:a2:44:
                    5d:f3:13:3d:3a:d0:74:f9:8f
                Exponent: 65537 (0x10001)
        X509v3 extensions:
            X509v3 Subject Key Identifier: 
                AA:09:70:30:00:E2:92:6A:32:A5:6E:3E:79:FC:77:DE:8F:27:5D:FD
            X509v3 Authority Key Identifier: 
                keyid:AA:09:70:30:00:E2:92:6A:32:A5:6E:3E:79:FC:77:DE:8F:27:5D:FD
                DirName:/C=US/ST=California/O=SuperHappyDevHouse/OU=Welcome/CN=Welcome System
                serial:00

            X509v3 Basic Constraints: 
                CA:TRUE
    Signature Algorithm: sha1WithRSAEncryption
        6e:2f:bf:60:32:1b:cb:e6:5b:b1:c4:50:ab:09:08:4b:c9:58:
        9a:c2:61:f8:6e:35:47:6d:f5:5b:49:3d:4a:99:e4:e0:fd:ea:
        00:85:f4:d4:e9:1e:9b:ec:48:59:7c:b3:da:de:74:4d:fc:77:
        88:2f:96:7b:16:4c:30:a3:18:1b:76:03:2a:4b:09:ae:eb:85:
        be:8d:ec:1e:03:93:71:33:f4:93:1d:09:4a:a5:4c:28:4f:e5:
        4f:96:86:d5:37:c7:b3:f0:72:09:80:0b:64:06:40:e5:be:50:
        f5:81:07:8e:1e:1f:99:eb:8a:3b:22:53:57:ff:4a:26:75:33:
        8c:66
-----BEGIN CERTIFICATE-----
MIIDEjCCAnugAwIBAgIBADANBgkqhkiG9w0BAQUFADBqMQswCQYDVQQGEwJVUzET
MBEGA1UECBMKQ2FsaWZvcm5pYTEbMBkGA1UEChMSU3VwZXJIYXBweURldkhvdXNl
MRAwDgYDVQQLEwdXZWxjb21lMRcwFQYDVQQDEw5XZWxjb21lIFN5c3RlbTAeFw0w
ODEyMDcwOTA5MjFaFw0yMDAzMjExNDAzNDVaMGoxCzAJBgNVBAYTAlVTMRMwEQYD
VQQIEwpDYWxpZm9ybmlhMRswGQYDVQQKExJTdXBlckhhcHB5RGV2SG91c2UxEDAO
BgNVBAsTB1dlbGNvbWUxFzAVBgNVBAMTDldlbGNvbWUgU3lzdGVtMIGfMA0GCSqG
SIb3DQEBAQUAA4GNADCBiQKBgQDOWn/Kjs2wzY6YpMIS0iiWmcVMs/xZd/tdizTy
jGZa2Pi7DzcS8ZYBmcfXrtxB3xTVbXRj9jq+055tYpYKDJ8EPpfFFTiGNf0oK+t7
7AUnIG5AMcZepGik03r/UdbZa9RI4L2j//iqk+tV/J+F6z0c0HBPUXOiRF3zEz06
0HT5jwIDAQABo4HHMIHEMB0GA1UdDgQWBBSqCXAwAOKSajKlbj55/Hfejydd/TCB
lAYDVR0jBIGMMIGJgBSqCXAwAOKSajKlbj55/Hfejydd/aFupGwwajELMAkGA1UE
BhMCVVMxEzARBgNVBAgTCkNhbGlmb3JuaWExGzAZBgNVBAoTElN1cGVySGFwcHlE
ZXZIb3VzZTEQMA4GA1UECxMHV2VsY29tZTEXMBUGA1UEAxMOV2VsY29tZSBTeXN0
ZW2CAQAwDAYDVR0TBAUwAwEB/zANBgkqhkiG9w0BAQUFAAOBgQBuL79gMhvL5lux
xFCrCQhLyViawmH4bjVHbfVbST1KmeTg/eoAhfTU6R6b7EhZfLPa3nRN/HeIL5Z7
FkwwoxgbdgMqSwmu64W+jeweA5NxM/STHQlKpUwoT+VPlobVN8ez8HIJgAtkBkDl
vlD1gQeOHh+Z64o7IlNX/0omdTOMZg==
-----END CERTIFICATE-----
