-----BEGIN RSA PRIVATE KEY-----
Proc-Type: 4,ENCRYPTED
DEK-Info: DES-EDE3-CBC,2BB43A528F7000F3

03eWFo1vC4mYr3vPi6PrSZdUdtmxnUe7MOBf8zjIWlfUQmFd3KsV/JKcr/+ACUCd
gCe9oY4I41lDBKtk+IYS/g2ajPHb87Wxguj7rRiWfiiokMMwrwTD7u2Ci+JsooYd
s24wDI+s+h/kyf+wWVykQbDF/qqPNRDKDv8F3ryVKdg3vt+dtHneTJJdhKjk1ZLk
M2qlQfVJ+GxRHEE3Jajnb6eI1oEvSODkOBMmUJZW0frPgJGzBY7d8lrwuFXRx22L
Ys+S1QkmvZHyYa4IHG+PeCFAVIiC/vTBY1lgnxsHaciAhCkRZL4frGCC4iDxYsJu
lLYrDYgHnajbnLpyNBgTvpUOmxbYhdChdmFT9lj6jXsYZW6JzZP5pMD3iUSE6InV
MUqoZKSORHTHS/rxMvl8Y+YFiBMWg/mj/oOScsaNyh39ZkPy3E/ZJmdeFziLlSFx
emSHrvKiYNJxFOMnEQFyDi3PQ2MyiHcoWYP37PpOmM4TscHQRd13Fj6hAToWhhKs
vNUcaPbqBWuWgUFDA1cpVL+YK/6Kd4tBfZ21rrzQokWiWU1yaJOQ8pol/4CZ5xdh
dQGZ2w64iX1QHxuiCOTQowxpn4e6KwRe1cty7SWHPv8kM8jHezSDuIyGJPDPUn7I
CThBUAN9tqGLYu0T+bozo3BftYUFZ61OyJTwZbfuo6djC7mIkx2R3VmFcqh8q0nC
IfE4+I/gO00vCe1vV2MK7se4SaGvBnLnxGiNQljXq55BzKUra1RojNVB4NmwNwhp
5lBIMvrjvk5hUdWtzdgS1GsC5UM+qOKOUghV2rbg3SBgFe+NcVWNrA==
-----END RSA PRIVATE KEY-----
Certificate:
    Data:
        Version: 3 (0x2)
        Serial Number: 2 (0x2)
        Signature Algorithm: sha1WithRSAEncryption
        Issuer: C=US, ST=California, O=SuperHappyDevHouse, OU=Welcome, CN=Welcome System
        Validity
            Not Before: Dec  7 09:15:09 2008 GMT
            Not After : Dec  7 09:15:09 2009 GMT
        Subject: C=US, ST=California, L=Los Gatos, O=SuperHappyDevHouse, OU=Welcome, CN=Welcome System Client
        Subject Public Key Info:
            Public Key Algorithm: rsaEncryption
            RSA Public Key: (1024 bit)
                Modulus (1024 bit):
                    00:b4:d4:c1:fb:bf:4b:3a:8f:4e:af:a9:5b:07:01:
                    2d:fa:ec:cf:f3:59:69:27:8e:43:e7:39:2d:ab:0e:
                    dc:a7:4f:40:70:af:47:de:fb:8d:40:eb:54:d4:1b:
                    a0:bb:0c:d2:ee:b9:12:29:94:46:b5:22:1c:4c:99:
                    dc:0e:56:3a:56:fe:ed:b3:89:88:1d:ba:ee:a8:ec:
                    f0:a8:be:01:15:5c:f4:a3:ea:69:30:b7:d1:89:6e:
                    e6:8c:bd:fe:a5:99:15:3f:0d:db:eb:e0:e6:ed:bf:
                    ab:ac:d5:4b:ff:85:85:ac:e2:e8:78:5f:c7:5f:45:
                    ed:21:a6:e9:b1:d6:75:85:91
                Exponent: 65537 (0x10001)
        X509v3 extensions:
            X509v3 Basic Constraints: 
                CA:FALSE
            Netscape Comment: 
                OpenSSL Generated Certificate
            X509v3 Subject Key Identifier: 
                BB:D8:F4:98:F9:9A:33:91:CC:D8:31:38:71:08:6A:34:5C:C8:AC:1F
            X509v3 Authority Key Identifier: 
                keyid:AA:09:70:30:00:E2:92:6A:32:A5:6E:3E:79:FC:77:DE:8F:27:5D:FD

    Signature Algorithm: sha1WithRSAEncryption
        80:58:d9:1e:de:eb:c3:c0:88:6b:a6:21:1a:ba:0b:09:1a:20:
        7e:b1:47:9d:64:4a:9c:0e:03:13:bc:cc:92:e8:2d:d3:26:95:
        f7:da:f6:81:53:e5:6c:94:f7:09:59:37:3b:d0:ee:7c:c5:44:
        dd:ac:b4:c1:8c:2b:3a:3c:b6:4a:74:69:eb:74:f0:31:d7:16:
        7a:02:2f:06:16:f9:8c:fe:1d:3c:15:d6:05:da:bd:55:43:bb:
        53:25:01:1c:0a:ed:cf:2b:14:2f:02:5e:81:fb:5c:1e:d2:87:
        40:9e:de:bd:cf:ec:05:42:dd:3f:07:f2:3e:7c:e5:ed:d5:52:
        bb:35
-----BEGIN CERTIFICATE-----
MIIC4TCCAkqgAwIBAgIBAjANBgkqhkiG9w0BAQUFADBqMQswCQYDVQQGEwJVUzET
MBEGA1UECBMKQ2FsaWZvcm5pYTEbMBkGA1UEChMSU3VwZXJIYXBweURldkhvdXNl
MRAwDgYDVQQLEwdXZWxjb21lMRcwFQYDVQQDEw5XZWxjb21lIFN5c3RlbTAeFw0w
ODEyMDcwOTE1MDlaFw0wOTEyMDcwOTE1MDlaMIGFMQswCQYDVQQGEwJVUzETMBEG
A1UECBMKQ2FsaWZvcm5pYTESMBAGA1UEBxMJTG9zIEdhdG9zMRswGQYDVQQKExJT
dXBlckhhcHB5RGV2SG91c2UxEDAOBgNVBAsTB1dlbGNvbWUxHjAcBgNVBAMTFVdl
bGNvbWUgU3lzdGVtIENsaWVudDCBnzANBgkqhkiG9w0BAQEFAAOBjQAwgYkCgYEA
tNTB+79LOo9Or6lbBwEt+uzP81lpJ45D5zktqw7cp09AcK9H3vuNQOtU1BuguwzS
7rkSKZRGtSIcTJncDlY6Vv7ts4mIHbruqOzwqL4BFVz0o+ppMLfRiW7mjL3+pZkV
Pw3b6+Dm7b+rrNVL/4WFrOLoeF/HX0XtIabpsdZ1hZECAwEAAaN7MHkwCQYDVR0T
BAIwADAsBglghkgBhvhCAQ0EHxYdT3BlblNTTCBHZW5lcmF0ZWQgQ2VydGlmaWNh
dGUwHQYDVR0OBBYEFLvY9Jj5mjORzNgxOHEIajRcyKwfMB8GA1UdIwQYMBaAFKoJ
cDAA4pJqMqVuPnn8d96PJ139MA0GCSqGSIb3DQEBBQUAA4GBAIBY2R7e68PAiGum
IRq6CwkaIH6xR51kSpwOAxO8zJLoLdMmlffa9oFT5WyU9wlZNzvQ7nzFRN2stMGM
Kzo8tkp0aet08DHXFnoCLwYW+Yz+HTwV1gXavVVDu1MlARwK7c8rFC8CXoH7XB7S
h0Ce3r3P7AVC3T8H8j585e3VUrs1
-----END CERTIFICATE-----
