-----BEGIN RSA PRIVATE KEY-----
Proc-Type: 4,ENCRYPTED
DEK-Info: DES-EDE3-CBC,CC61A444F99EF0D2

ZfkZdjx1U5tgEI2huJzOs4jnB0i8vW7FvnXeJYzhIuniduhToiLG5gmLhAK/QVLs
aAa3pgmsf+5BMBMF5hbn/GjUlppVhvd0ZV0pvgAINOHC+Fh1zNNbK8ZgSlmk9Rps
ue1G4OKRPhnKoXEKF2Nhifl9H+HhqVzqtEw/k/QtwcJNqK+s3Mbj1Ei3g0D42ycL
elvIV8e3bMwSvDEayTzpxghUBLwNXw2i+UixKPKV2ogRr0RTIhwYlnr/eiROQtsH
af032HetYjiHwK7p1HYF1jdHLLTWc4zXVM6bu8YKWxtIgaswKjseJzYrUaaX4L62
pksRa+0OHdb1k8DnhVTE5GI6cR25h2Eh68vq/XTXzNUbu8Ps7fBrthKg7hzv0up2
NHcRk1n46bClpgA4gFzvgDYjvf7BFfTWjXrctwpOTrC4mAHctm5Si0ySCjIs0+M6
aG2zdbcy/sousbTbc5mMb5R6FhA3R5b6O8ncfOeio96kxCgsZKUhqtSq9H6lv5R1
VqzUKbvYFssbvBtDpXL5WzFGhtHwqdSUQJMof7ccPdr5oNUs+CmzlGX8cy08q0fY
0AUteIfBR3jqnml+p48KNgE8CgKTy4H3+M05Ittjpsvvlp0eUgTKhOM5QC3a4Y9z
eoh+IpGugVSiUJKKuwL0rZpXznF+2DyAc8Mad8oFwLqJs9PvmzbSf3LVxmDSo/IS
ycFjxomLx6Ywp1Oh+RSSp3vT2ThZF2jyPtTtJjZMMBM2ZRt6+hwZeZDHgWmoKhWG
elWbCLCm7FbzhhBNak6Ojndx9+WIxlXMNnFY8MkUxTHddyD5eHcxQg==
-----END RSA PRIVATE KEY-----
Certificate:
    Data:
        Version: 3 (0x2)
        Serial Number: 1 (0x1)
        Signature Algorithm: sha1WithRSAEncryption
        Issuer: C=US, ST=California, O=SuperHappyDevHouse, OU=Welcome, CN=Welcome System
        Validity
            Not Before: Dec  7 09:10:12 2008 GMT
            Not After : Dec  7 09:10:12 2009 GMT
        Subject: C=US, ST=California, L=Los Gatos, O=SuperHappyDevHouse, OU=Welcome, CN=Welcome System Server
        Subject Public Key Info:
            Public Key Algorithm: rsaEncryption
            RSA Public Key: (1024 bit)
                Modulus (1024 bit):
                    00:ed:5c:d4:e7:a5:d6:c5:25:39:c2:96:83:ab:a9:
                    36:8f:b2:f8:19:77:3a:85:be:de:3c:7c:f5:e0:7e:
                    92:f1:41:6c:b3:9e:f4:dd:80:f1:8d:00:c4:37:13:
                    2e:de:b4:cd:b7:f0:ae:1f:87:53:53:fc:51:75:4d:
                    25:b4:6e:c0:7d:0e:50:dc:a5:3e:fb:76:fc:43:e2:
                    2a:76:a1:c6:5f:72:09:69:5f:6b:7b:cf:a1:29:5d:
                    be:a4:be:23:c3:41:8e:2b:6e:44:1b:61:c7:81:60:
                    cf:f3:1d:0c:bb:4c:40:82:cf:b0:0c:59:7f:9f:18:
                    68:52:64:7b:fc:66:d7:5d:f5
                Exponent: 65537 (0x10001)
        X509v3 extensions:
            X509v3 Basic Constraints: 
                CA:FALSE
            Netscape Comment: 
                OpenSSL Generated Certificate
            X509v3 Subject Key Identifier: 
                FE:C9:D0:63:8B:BD:52:49:AB:21:36:6C:0D:EE:CA:07:64:E9:0F:14
            X509v3 Authority Key Identifier: 
                keyid:AA:09:70:30:00:E2:92:6A:32:A5:6E:3E:79:FC:77:DE:8F:27:5D:FD

    Signature Algorithm: sha1WithRSAEncryption
        11:d6:35:f4:09:37:60:c9:11:f0:40:85:6c:30:30:96:1f:72:
        c8:4f:98:22:af:0e:a1:ee:c4:92:de:53:bf:96:b3:4b:3c:51:
        79:69:86:1c:e8:a7:51:7b:51:c0:a9:09:6b:04:16:3b:d9:9b:
        f7:41:24:ba:11:ce:22:b4:cf:02:28:08:ee:e5:d3:85:09:bc:
        6c:6d:41:aa:85:95:63:42:68:2b:d5:48:c5:a4:2f:b1:94:19:
        4b:f3:a4:f1:97:ba:fb:ea:03:d0:30:2b:01:04:a0:50:a9:7e:
        a3:64:9c:6f:fb:ec:46:58:c8:7c:fd:14:35:71:93:e6:2b:41:
        a6:c6
-----BEGIN CERTIFICATE-----
MIIC4TCCAkqgAwIBAgIBATANBgkqhkiG9w0BAQUFADBqMQswCQYDVQQGEwJVUzET
MBEGA1UECBMKQ2FsaWZvcm5pYTEbMBkGA1UEChMSU3VwZXJIYXBweURldkhvdXNl
MRAwDgYDVQQLEwdXZWxjb21lMRcwFQYDVQQDEw5XZWxjb21lIFN5c3RlbTAeFw0w
ODEyMDcwOTEwMTJaFw0wOTEyMDcwOTEwMTJaMIGFMQswCQYDVQQGEwJVUzETMBEG
A1UECBMKQ2FsaWZvcm5pYTESMBAGA1UEBxMJTG9zIEdhdG9zMRswGQYDVQQKExJT
dXBlckhhcHB5RGV2SG91c2UxEDAOBgNVBAsTB1dlbGNvbWUxHjAcBgNVBAMTFVdl
bGNvbWUgU3lzdGVtIFNlcnZlcjCBnzANBgkqhkiG9w0BAQEFAAOBjQAwgYkCgYEA
7VzU56XWxSU5wpaDq6k2j7L4GXc6hb7ePHz14H6S8UFss5703YDxjQDENxMu3rTN
t/CuH4dTU/xRdU0ltG7AfQ5Q3KU++3b8Q+IqdqHGX3IJaV9re8+hKV2+pL4jw0GO
K25EG2HHgWDP8x0Mu0xAgs+wDFl/nxhoUmR7/GbXXfUCAwEAAaN7MHkwCQYDVR0T
BAIwADAsBglghkgBhvhCAQ0EHxYdT3BlblNTTCBHZW5lcmF0ZWQgQ2VydGlmaWNh
dGUwHQYDVR0OBBYEFP7J0GOLvVJJqyE2bA3uygdk6Q8UMB8GA1UdIwQYMBaAFKoJ
cDAA4pJqMqVuPnn8d96PJ139MA0GCSqGSIb3DQEBBQUAA4GBABHWNfQJN2DJEfBA
hWwwMJYfcshPmCKvDqHuxJLeU7+Ws0s8UXlphhzop1F7UcCpCWsEFjvZm/dBJLoR
ziK0zwIoCO7l04UJvGxtQaqFlWNCaCvVSMWkL7GUGUvzpPGXuvvqA9AwKwEEoFCp
fqNknG/77EZYyHz9FDVxk+YrQabG
-----END CERTIFICATE-----
