Certificate:
    Data:
        Version: 3 (0x2)
        Serial Number: 1 (0x1)
        Signature Algorithm: sha1WithRSAEncryption
        Issuer: CN=SHDH, C=US, ST=California, L=Bay Area, O=shdh.org/emailAddress=welcome@shdh.org
        Validity
            Not Before: Dec  8 01:04:33 2008 GMT
            Not After : Dec  8 01:04:33 2009 GMT
        Subject: C=CA, ST=California, O=Internet Widgits Pty Ltd, CN=welcome.local
        Subject Public Key Info:
            Public Key Algorithm: rsaEncryption
            RSA Public Key: (1024 bit)
                Modulus (1024 bit):
                    00:d8:69:b9:2c:66:7e:44:70:64:e3:e3:0e:f6:15:
                    b3:ad:57:a0:50:d9:b8:a6:48:dd:67:ec:18:0c:f7:
                    87:a5:d0:ee:7d:62:e4:55:0f:06:2e:20:9b:e8:c6:
                    38:ae:23:18:50:89:57:2e:d4:15:c5:d5:3b:a5:45:
                    00:39:98:6f:7d:e6:b0:87:20:a2:10:e1:04:1e:78:
                    92:c0:69:3c:ab:f8:51:ed:2c:78:eb:7f:e0:00:a8:
                    52:02:f5:af:ad:61:17:72:f7:6c:bf:e4:2b:bd:6f:
                    14:5a:03:30:e1:db:9b:fc:ec:e9:30:03:c4:6a:38:
                    a4:25:7a:8d:c7:77:e5:c2:6f
                Exponent: 65537 (0x10001)
        X509v3 extensions:
            X509v3 Basic Constraints: 
                CA:FALSE
            X509v3 Subject Key Identifier: 
                38:C1:3B:12:F6:73:F0:10:9D:FB:97:72:17:29:1F:79:C9:35:17:02
            X509v3 Authority Key Identifier: 
                keyid:FF:BD:C8:AD:E3:20:3D:9D:53:10:E6:94:2A:90:EE:0B:5C:78:FF:2E
                DirName:/CN=SHDH/C=US/ST=California/L=Bay Area/O=shdh.org/emailAddress=welcome@shdh.org
                serial:A4:BA:5A:D7:1A:C5:5A:D2

            Netscape CA Revocation Url: 
                https://shdh.org/ca-crl.pem
    Signature Algorithm: sha1WithRSAEncryption
        08:74:50:68:49:a6:e0:2d:e5:64:a5:7b:07:73:5f:ca:42:48:
        20:d9:a9:81:e0:80:a9:ae:48:17:2c:a6:c3:b8:49:70:cb:7d:
        f5:38:13:02:46:57:75:32:fb:8f:c7:ce:36:fc:bd:53:97:2f:
        da:c9:8f:da:6e:a4:8d:74:70:80:f9:c3:2d:a6:e4:1b:fd:1a:
        17:dc:f2:3f:c7:1e:98:c0:c0:9d:f6:11:f8:09:a2:97:62:66:
        ce:ee:a6:34:88:bc:a5:a5:5e:7e:4f:ee:06:9d:3c:f7:20:70:
        55:77:25:5f:88:8c:9c:8e:91:9f:c8:51:87:00:83:16:72:c4:
        50:7c:de:59:ac:1e:34:50:b9:fb:76:45:c1:09:b4:29:c9:a3:
        c8:d0:7e:19:dd:55:91:07:e4:53:9f:c3:1e:55:97:9d:ac:22:
        44:88:de:37:38:cd:ae:b4:7d:d1:89:e8:84:37:5b:88:4d:ff:
        c6:46:2e:86:31:3f:0c:2e:1a:34:84:88:b5:5a:30:3a:b8:e2:
        6e:83:66:ca:7e:5a:ae:64:74:89:5c:65:3c:ab:3c:0a:62:43:
        19:5c:05:64:5a:4b:2b:ee:0f:1a:67:86:08:14:7d:e6:52:c1:
        65:58:92:53:ae:a6:84:22:a4:90:db:05:c1:fd:77:07:db:14:
        c7:e6:6b:bb
-----BEGIN CERTIFICATE-----
MIID1TCCAr2gAwIBAgIBATANBgkqhkiG9w0BAQUFADB4MQ0wCwYDVQQDEwRTSERI
MQswCQYDVQQGEwJVUzETMBEGA1UECBMKQ2FsaWZvcm5pYTERMA8GA1UEBxMIQmF5
IEFyZWExETAPBgNVBAoTCHNoZGgub3JnMR8wHQYJKoZIhvcNAQkBFhB3ZWxjb21l
QHNoZGgub3JnMB4XDTA4MTIwODAxMDQzM1oXDTA5MTIwODAxMDQzM1owXTELMAkG
A1UEBhMCQ0ExEzARBgNVBAgTCkNhbGlmb3JuaWExITAfBgNVBAoTGEludGVybmV0
IFdpZGdpdHMgUHR5IEx0ZDEWMBQGA1UEAxMNd2VsY29tZS5sb2NhbDCBnzANBgkq
hkiG9w0BAQEFAAOBjQAwgYkCgYEA2Gm5LGZ+RHBk4+MO9hWzrVegUNm4pkjdZ+wY
DPeHpdDufWLkVQ8GLiCb6MY4riMYUIlXLtQVxdU7pUUAOZhvfeawhyCiEOEEHniS
wGk8q/hR7Sx463/gAKhSAvWvrWEXcvdsv+QrvW8UWgMw4dub/OzpMAPEajikJXqN
x3flwm8CAwEAAaOCAQcwggEDMAkGA1UdEwQCMAAwHQYDVR0OBBYEFDjBOxL2c/AQ
nfuXchcpH3nJNRcCMIGqBgNVHSMEgaIwgZ+AFP+9yK3jID2dUxDmlCqQ7gtceP8u
oXykejB4MQ0wCwYDVQQDEwRTSERIMQswCQYDVQQGEwJVUzETMBEGA1UECBMKQ2Fs
aWZvcm5pYTERMA8GA1UEBxMIQmF5IEFyZWExETAPBgNVBAoTCHNoZGgub3JnMR8w
HQYJKoZIhvcNAQkBFhB3ZWxjb21lQHNoZGgub3JnggkApLpa1xrFWtIwKgYJYIZI
AYb4QgEEBB0WG2h0dHBzOi8vc2hkaC5vcmcvY2EtY3JsLnBlbTANBgkqhkiG9w0B
AQUFAAOCAQEACHRQaEmm4C3lZKV7B3NfykJIINmpgeCAqa5IFyymw7hJcMt99TgT
AkZXdTL7j8fONvy9U5cv2smP2m6kjXRwgPnDLabkG/0aF9zyP8cemMDAnfYR+Ami
l2Jmzu6mNIi8paVefk/uBp089yBwVXclX4iMnI6Rn8hRhwCDFnLEUHzeWaweNFC5
+3ZFwQm0KcmjyNB+Gd1VkQfkU5/DHlWXnawiRIjeNzjNrrR90YnohDdbiE3/xkYu
hjE/DC4aNISItVowOrjiboNmyn5armR0iVxlPKs8CmJDGVwFZFpLK+4PGmeGCBR9
5lLBZViSU66mhCKkkNsFwf13B9sUx+Zruw==
-----END CERTIFICATE-----
